; Function Attrs: null_pointer_is_valid sspstrong uwtable
define hidden i32 @budb_dissect_structDumpHeader(ptr noundef %0, i32 noundef %1, ptr noundef %2, ptr noundef %3, ptr noundef %4, ptr noundef %5, i32 noundef %6, i32 noundef %7) local_unnamed_addr #0 {
  %9 = getelementptr inbounds nuw i8, ptr %4, i64 25
  %10 = load i8, ptr %9, align 1, !range !6, !noundef !7
  %11 = trunc nuw i8 %10 to i1
  %12 = and i32 %1, 3
  %.not = icmp eq i32 %12, 0
  %or.cond = or i1 %.not, %11
  %13 = and i32 %1, -4
  %14 = add i32 %13, 4
  %.0 = select i1 %or.cond, i32 %1, i32 %14
  %.not58 = icmp eq ptr %3, null
  br i1 %.not58, label %19, label %15

15:                                               ; preds = %8
  %16 = tail call ptr @proto_tree_add_item(ptr noundef nonnull %3, i32 noundef %6, ptr noundef %0, i32 noundef %.0, i32 noundef -1, i32 noundef 0)
  %17 = load i32, ptr @ett_budb_structDumpHeader, align 4
  %18 = tail call ptr @proto_item_add_subtree(ptr noundef %16, i32 noundef %17)
  br label %19

19:                                               ; preds = %15, %8
  %.056 = phi ptr [ %16, %15 ], [ null, %8 ]
  %.055 = phi ptr [ %18, %15 ], [ null, %8 ]
  %20 = load i32, ptr @hf_budb_structDumpHeader_type, align 4
  %21 = tail call i32 @dissect_ndr_uint32(ptr noundef %0, i32 noundef %.0, ptr noundef %2, ptr noundef %.055, ptr noundef %4, ptr noundef %5, i32 noundef %20, ptr noundef null)
  %22 = load i32, ptr @hf_budb_structDumpHeader_structversion, align 4
  %23 = tail call i32 @dissect_ndr_uint32(ptr noundef %0, i32 noundef %21, ptr noundef %2, ptr noundef %.055, ptr noundef %4, ptr noundef %5, i32 noundef %22, ptr noundef null)
  %24 = load i32, ptr @hf_budb_structDumpHeader_size, align 4
  %25 = tail call i32 @dissect_ndr_uint32(ptr noundef %0, i32 noundef %23, ptr noundef %2, ptr noundef %.055, ptr noundef %4, ptr noundef %5, i32 noundef %24, ptr noundef null)
  %26 = load i32, ptr @hf_budb_structDumpHeader_spare1, align 4
  %27 = tail call i32 @dissect_ndr_uint32(ptr noundef %0, i32 noundef %25, ptr noundef %2, ptr noundef %.055, ptr noundef %4, ptr noundef %5, i32 noundef %26, ptr noundef null)
  %28 = load i32, ptr @hf_budb_structDumpHeader_spare2, align 4
  %29 = tail call i32 @dissect_ndr_uint32(ptr noundef %0, i32 noundef %27, ptr noundef %2, ptr noundef %.055, ptr noundef %4, ptr noundef %5, i32 noundef %28, ptr noundef null)
  %30 = load i32, ptr @hf_budb_structDumpHeader_spare3, align 4
  %31 = tail call i32 @dissect_ndr_uint32(ptr noundef %0, i32 noundef %29, ptr noundef %2, ptr noundef %.055, ptr noundef %4, ptr noundef %5, i32 noundef %30, ptr noundef null)
  %32 = load i32, ptr @hf_budb_structDumpHeader_spare4, align 4
  %33 = tail call i32 @dissect_ndr_uint32(ptr noundef %0, i32 noundef %31, ptr noundef %2, ptr noundef %.055, ptr noundef %4, ptr noundef %5, i32 noundef %32, ptr noundef null)
  %34 = sub i32 %33, %.0
  tail call void @proto_item_set_len(ptr noundef %.056, i32 noundef %34)
  ret i32 %33
}